target datalayout = "e-m:e-p270:32:32-p271:32:32-p272:64:64-i64:64-i128:128-f80:128-n8:16:32:64-S128"
target triple = "x86_64-pc-linux-gnu"

@libctx = internal global ptr null, align 8
@.str.14 = private unnamed_addr constant [29 x i8] c"../openssl/test/sslapitest.c\00", align 1
@cert = internal global ptr null, align 8
@privkey = internal global ptr null, align 8
@.str.157 = private unnamed_addr constant [67 x i8] c"create_ssl_objects(sctx, cctx, &serverssl, &clientssl, NULL, NULL)\00", align 1
@.str.158 = private unnamed_addr constant [60 x i8] c"create_ssl_connection(serverssl, clientssl, SSL_ERROR_NONE)\00", align 1
@.str.218 = private unnamed_addr constant [2 x i8] c"0\00", align 1
@.str.910 = private unnamed_addr constant [105 x i8] c"create_ssl_ctx_pair(libctx, TLS_server_method(), TLS_client_method(), 0, 0, &sctx, &cctx, cert, privkey)\00", align 1
@.str.1317 = private unnamed_addr constant [5 x i8] c"prot\00", align 1
@.str.1318 = private unnamed_addr constant [12 x i8] c"fooprot + 1\00", align 1
@fooprot = internal constant [4 x i8] c"\03foo", align 1
@.str.1319 = private unnamed_addr constant [8 x i8] c"protlen\00", align 1
@.str.1321 = private unnamed_addr constant [20 x i8] c"Should not get here\00", align 1
@.str.1322 = private unnamed_addr constant [48 x i8] c"SSL_set_alpn_protos(clientssl, prots, protslen)\00", align 1

; Function Attrs: nounwind uwtable
define internal i32 @test_alpn(i32 noundef %0) #0 {
  %2 = alloca i32, align 4
  %3 = alloca i32, align 4
  %4 = alloca ptr, align 8
  %5 = alloca ptr, align 8
  %6 = alloca ptr, align 8
  %7 = alloca ptr, align 8
  %8 = alloca i32, align 4
  %9 = alloca ptr, align 8
  %10 = alloca i32, align 4
  %11 = alloca ptr, align 8
  %12 = alloca i32, align 4
  %13 = alloca i32, align 4
  store i32 %0, ptr %3, align 4, !tbaa !13
  call void @llvm.lifetime.start.p0(i64 8, ptr %4) #9
  store ptr null, ptr %4, align 8, !tbaa !19
  call void @llvm.lifetime.start.p0(i64 8, ptr %5) #9
  store ptr null, ptr %5, align 8, !tbaa !19
  call void @llvm.lifetime.start.p0(i64 8, ptr %6) #9
  store ptr null, ptr %6, align 8, !tbaa !21
  call void @llvm.lifetime.start.p0(i64 8, ptr %7) #9
  store ptr null, ptr %7, align 8, !tbaa !21
  call void @llvm.lifetime.start.p0(i64 4, ptr %8) #9
  store i32 0, ptr %8, align 4, !tbaa !13
  call void @llvm.lifetime.start.p0(i64 8, ptr %9) #9
  store ptr @fooprot, ptr %9, align 8, !tbaa !11
  call void @llvm.lifetime.start.p0(i64 4, ptr %10) #9
  store i32 4, ptr %10, align 4, !tbaa !13
  %14 = load ptr, ptr @libctx, align 8, !tbaa !4
  %15 = call ptr @TLS_server_method()
  %16 = call ptr @TLS_client_method()
  %17 = load ptr, ptr @cert, align 8, !tbaa !11
  %18 = load ptr, ptr @privkey, align 8, !tbaa !11
  %19 = call i32 @create_ssl_ctx_pair(ptr noundef %14, ptr noundef %15, ptr noundef %16, i32 noundef 0, i32 noundef 0, ptr noundef %4, ptr noundef %5, ptr noundef %17, ptr noundef %18)
  %20 = icmp ne i32 %19, 0
  %21 = zext i1 %20 to i32
  %22 = call i32 @test_true(ptr noundef @.str.14, i32 noundef 12507, ptr noundef @.str.910, i32 noundef %21)
  %23 = icmp ne i32 %22, 0
  br i1 %23, label %25, label %24

24:                                               ; preds = %1
  br label %99

25:                                               ; preds = %1
  %26 = load ptr, ptr %4, align 8, !tbaa !19
  call void @SSL_CTX_set_alpn_select_cb(ptr noundef %26, ptr noundef @alpn_select_cb2, ptr noundef %3)
  %27 = load ptr, ptr %4, align 8, !tbaa !19
  %28 = load ptr, ptr %5, align 8, !tbaa !19
  %29 = call i32 @create_ssl_objects(ptr noundef %27, ptr noundef %28, ptr noundef %6, ptr noundef %7, ptr noundef null, ptr noundef null)
  %30 = icmp ne i32 %29, 0
  %31 = zext i1 %30 to i32
  %32 = call i32 @test_true(ptr noundef @.str.14, i32 noundef 12513, ptr noundef @.str.157, i32 noundef %31)
  %33 = icmp ne i32 %32, 0
  br i1 %33, label %35, label %34

34:                                               ; preds = %25
  br label %99

35:                                               ; preds = %25
  %36 = load i32, ptr %3, align 4, !tbaa !13
  %37 = icmp eq i32 %36, 1
  br i1 %37, label %38, label %39

38:                                               ; preds = %35
  store ptr null, ptr %9, align 8, !tbaa !11
  store i32 0, ptr %10, align 4, !tbaa !13
  br label %39

39:                                               ; preds = %38, %35
  %40 = load ptr, ptr %7, align 8, !tbaa !21
  %41 = load ptr, ptr %9, align 8, !tbaa !11
  %42 = load i32, ptr %10, align 4, !tbaa !13
  %43 = call i32 @SSL_set_alpn_protos(ptr noundef %40, ptr noundef %41, i32 noundef %42)
  %44 = icmp ne i32 %43, 0
  %45 = zext i1 %44 to i32
  %46 = call i32 @test_false(ptr noundef @.str.14, i32 noundef 12522, ptr noundef @.str.1322, i32 noundef %45)
  %47 = icmp ne i32 %46, 0
  br i1 %47, label %49, label %48

48:                                               ; preds = %39
  br label %99

49:                                               ; preds = %39
  %50 = load i32, ptr %3, align 4, !tbaa !13
  %51 = icmp eq i32 %50, 2
  br i1 %51, label %55, label %52

52:                                               ; preds = %49
  %53 = load i32, ptr %3, align 4, !tbaa !13
  %54 = icmp eq i32 %53, 3
  br i1 %54, label %55, label %65

55:                                               ; preds = %52, %49
  %56 = load ptr, ptr %6, align 8, !tbaa !21
  %57 = load ptr, ptr %7, align 8, !tbaa !21
  %58 = call i32 @create_ssl_connection(ptr noundef %56, ptr noundef %57, i32 noundef 0)
  %59 = icmp ne i32 %58, 0
  %60 = zext i1 %59 to i32
  %61 = call i32 @test_false(ptr noundef @.str.14, i32 noundef 12528, ptr noundef @.str.158, i32 noundef %60)
  %62 = icmp ne i32 %61, 0
  br i1 %62, label %64, label %63

63:                                               ; preds = %55
  br label %99

64:                                               ; preds = %55
  br label %98

65:                                               ; preds = %52
  call void @llvm.lifetime.start.p0(i64 8, ptr %11) #9
  call void @llvm.lifetime.start.p0(i64 4, ptr %12) #9
  %66 = load ptr, ptr %6, align 8, !tbaa !21
  %67 = load ptr, ptr %7, align 8, !tbaa !21
  %68 = call i32 @create_ssl_connection(ptr noundef %66, ptr noundef %67, i32 noundef 0)
  %69 = icmp ne i32 %68, 0
  %70 = zext i1 %69 to i32
  %71 = call i32 @test_true(ptr noundef @.str.14, i32 noundef 12535, ptr noundef @.str.158, i32 noundef %70)
  %72 = icmp ne i32 %71, 0
  br i1 %72, label %74, label %73

73:                                               ; preds = %65
  store i32 2, ptr %13, align 4
  br label %95

74:                                               ; preds = %65
  %75 = load ptr, ptr %7, align 8, !tbaa !21
  call void @SSL_get0_alpn_selected(ptr noundef %75, ptr noundef %11, ptr noundef %12)
  %76 = load i32, ptr %3, align 4, !tbaa !13
  switch i32 %76, label %93 [
    i32 0, label %77
    i32 1, label %87
  ]

77:                                               ; preds = %74
  %78 = load ptr, ptr %11, align 8, !tbaa !11
  %79 = load i32, ptr %12, align 4, !tbaa !13
  %80 = zext i32 %79 to i64
  %81 = load i8, ptr @fooprot, align 1, !tbaa !35
  %82 = zext i8 %81 to i64
  %83 = call i32 @test_mem_eq(ptr noundef @.str.14, i32 noundef 12541, ptr noundef @.str.1317, ptr noundef @.str.1318, ptr noundef %78, i64 noundef %80, ptr noundef getelementptr inbounds (i8, ptr @fooprot, i64 1), i64 noundef %82)
  %84 = icmp ne i32 %83, 0
  br i1 %84, label %86, label %85

85:                                               ; preds = %77
  store i32 2, ptr %13, align 4
  br label %95

86:                                               ; preds = %77
  br label %94

87:                                               ; preds = %74
  %88 = load i32, ptr %12, align 4, !tbaa !13
  %89 = call i32 @test_uint_eq(ptr noundef @.str.14, i32 noundef 12545, ptr noundef @.str.1319, ptr noundef @.str.218, i32 noundef %88, i32 noundef 0)
  %90 = icmp ne i32 %89, 0
  br i1 %90, label %92, label %91

91:                                               ; preds = %87
  store i32 2, ptr %13, align 4
  br label %95

92:                                               ; preds = %87
  br label %94

93:                                               ; preds = %74
  call void (ptr, i32, ptr, ...) @test_error(ptr noundef @.str.14, i32 noundef 12549, ptr noundef @.str.1321)
  store i32 2, ptr %13, align 4
  br label %95

94:                                               ; preds = %92, %86
  store i32 0, ptr %13, align 4
  br label %95

95:                                               ; preds = %93, %91, %85, %73, %94
  call void @llvm.lifetime.end.p0(i64 4, ptr %12) #9
  call void @llvm.lifetime.end.p0(i64 8, ptr %11) #9
  %96 = load i32, ptr %13, align 4
  switch i32 %96, label %105 [
    i32 0, label %97
    i32 2, label %99
  ]

97:                                               ; preds = %95
  br label %98

98:                                               ; preds = %97, %64
  store i32 1, ptr %8, align 4, !tbaa !13
  br label %99

99:                                               ; preds = %98, %95, %63, %48, %34, %24
  %100 = load ptr, ptr %6, align 8, !tbaa !21
  call void @SSL_free(ptr noundef %100)
  %101 = load ptr, ptr %7, align 8, !tbaa !21
  call void @SSL_free(ptr noundef %101)
  %102 = load ptr, ptr %4, align 8, !tbaa !19
  call void @SSL_CTX_free(ptr noundef %102)
  %103 = load ptr, ptr %5, align 8, !tbaa !19
  call void @SSL_CTX_free(ptr noundef %103)
  %104 = load i32, ptr %8, align 4, !tbaa !13
  store i32 %104, ptr %2, align 4
  store i32 1, ptr %13, align 4
  br label %105

105:                                              ; preds = %99, %95
  call void @llvm.lifetime.end.p0(i64 4, ptr %10) #9
  call void @llvm.lifetime.end.p0(i64 8, ptr %9) #9
  call void @llvm.lifetime.end.p0(i64 4, ptr %8) #9
  call void @llvm.lifetime.end.p0(i64 8, ptr %7) #9
  call void @llvm.lifetime.end.p0(i64 8, ptr %6) #9
  call void @llvm.lifetime.end.p0(i64 8, ptr %5) #9
  call void @llvm.lifetime.end.p0(i64 8, ptr %4) #9
  %106 = load i32, ptr %2, align 4
  ret i32 %106
}