; Function Attrs: nounwind uwtable
define internal range(i32 0, 2) i32 @test_alpn(i32 noundef %0) #1 {
  %2 = alloca i32, align 4
  %3 = alloca ptr, align 8
  %4 = alloca ptr, align 8
  %5 = alloca ptr, align 8
  %6 = alloca ptr, align 8
  %7 = alloca ptr, align 8
  %8 = alloca i32, align 4
  store i32 %0, ptr %2, align 4, !tbaa !14
  call void @llvm.lifetime.start.p0(i64 8, ptr nonnull %3) #24
  store ptr null, ptr %3, align 8, !tbaa !19
  call void @llvm.lifetime.start.p0(i64 8, ptr nonnull %4) #24
  store ptr null, ptr %4, align 8, !tbaa !19
  call void @llvm.lifetime.start.p0(i64 8, ptr nonnull %5) #24
  store ptr null, ptr %5, align 8, !tbaa !21
  call void @llvm.lifetime.start.p0(i64 8, ptr nonnull %6) #24
  store ptr null, ptr %6, align 8, !tbaa !21
  %9 = load ptr, ptr @libctx, align 8, !tbaa !4
  %10 = tail call ptr @TLS_server_method() #24
  %11 = tail call ptr @TLS_client_method() #24
  %12 = load ptr, ptr @cert, align 8, !tbaa !11
  %13 = load ptr, ptr @privkey, align 8, !tbaa !11
  %14 = call i32 @create_ssl_ctx_pair(ptr noundef %9, ptr noundef %10, ptr noundef %11, i32 noundef 0, i32 noundef 0, ptr noundef nonnull %3, ptr noundef nonnull %4, ptr noundef %12, ptr noundef %13) #24
  %15 = icmp ne i32 %14, 0
  %16 = zext i1 %15 to i32
  %17 = call i32 @test_true(ptr noundef nonnull @.str.14, i32 noundef 12507, ptr noundef nonnull @.str.910, i32 noundef %16) #24
  %.not = icmp eq i32 %17, 0
  br i1 %.not, label %65, label %18

18:                                               ; preds = %1
  %19 = load ptr, ptr %3, align 8, !tbaa !19
  call void @SSL_CTX_set_alpn_select_cb(ptr noundef %19, ptr noundef nonnull @alpn_select_cb2, ptr noundef nonnull %2) #24
  %20 = load ptr, ptr %3, align 8, !tbaa !19
  %21 = load ptr, ptr %4, align 8, !tbaa !19
  %22 = call i32 @create_ssl_objects(ptr noundef %20, ptr noundef %21, ptr noundef nonnull %5, ptr noundef nonnull %6, ptr noundef null, ptr noundef null) #24
  %23 = icmp ne i32 %22, 0
  %24 = zext i1 %23 to i32
  %25 = call i32 @test_true(ptr noundef nonnull @.str.14, i32 noundef 12513, ptr noundef nonnull @.str.157, i32 noundef %24) #24
  %.not9 = icmp eq i32 %25, 0
  br i1 %.not9, label %65, label %26

26:                                               ; preds = %18
  %27 = load i32, ptr %2, align 4, !tbaa !14
  %28 = icmp eq i32 %27, 1
  %spec.select = select i1 %28, ptr null, ptr @fooprot
  %spec.select15 = select i1 %28, i32 0, i32 4
  %29 = load ptr, ptr %6, align 8, !tbaa !21
  %30 = call i32 @SSL_set_alpn_protos(ptr noundef %29, ptr noundef %spec.select, i32 noundef %spec.select15) #24
  %31 = icmp ne i32 %30, 0
  %32 = zext i1 %31 to i32
  %33 = call i32 @test_false(ptr noundef nonnull @.str.14, i32 noundef 12522, ptr noundef nonnull @.str.1322, i32 noundef %32) #24
  %.not10 = icmp eq i32 %33, 0
  br i1 %.not10, label %65, label %34

34:                                               ; preds = %26
  %35 = load i32, ptr %2, align 4, !tbaa !14
  %36 = and i32 %35, -2
  %or.cond = icmp eq i32 %36, 2
  br i1 %or.cond, label %37, label %44

37:                                               ; preds = %34
  %38 = load ptr, ptr %5, align 8, !tbaa !21
  %39 = load ptr, ptr %6, align 8, !tbaa !21
  %40 = call i32 @create_ssl_connection(ptr noundef %38, ptr noundef %39, i32 noundef 0) #24
  %41 = icmp ne i32 %40, 0
  %42 = zext i1 %41 to i32
  %43 = call i32 @test_false(ptr noundef nonnull @.str.14, i32 noundef 12528, ptr noundef nonnull @.str.158, i32 noundef %42) #24
  %.not14 = icmp eq i32 %43, 0
  br i1 %.not14, label %65, label %64

44:                                               ; preds = %34
  call void @llvm.lifetime.start.p0(i64 8, ptr nonnull %7) #24
  call void @llvm.lifetime.start.p0(i64 4, ptr nonnull %8) #24
  %45 = load ptr, ptr %5, align 8, !tbaa !21
  %46 = load ptr, ptr %6, align 8, !tbaa !21
  %47 = call i32 @create_ssl_connection(ptr noundef %45, ptr noundef %46, i32 noundef 0) #24
  %48 = icmp ne i32 %47, 0
  %49 = zext i1 %48 to i32
  %50 = call i32 @test_true(ptr noundef nonnull @.str.14, i32 noundef 12535, ptr noundef nonnull @.str.158, i32 noundef %49) #24
  %.not11 = icmp eq i32 %50, 0
  br i1 %.not11, label %.thread, label %51

51:                                               ; preds = %44
  %52 = load ptr, ptr %6, align 8, !tbaa !21
  call void @SSL_get0_alpn_selected(ptr noundef %52, ptr noundef nonnull %7, ptr noundef nonnull %8) #24
  %53 = load i32, ptr %2, align 4, !tbaa !14
  switch i32 %53, label %62 [
    i32 0, label %54
    i32 1, label %59
  ]

54:                                               ; preds = %51
  %55 = load ptr, ptr %7, align 8, !tbaa !11
  %56 = load i32, ptr %8, align 4, !tbaa !14
  %57 = zext i32 %56 to i64
  %58 = call i32 @test_mem_eq(ptr noundef nonnull @.str.14, i32 noundef 12541, ptr noundef nonnull @.str.1317, ptr noundef nonnull @.str.1318, ptr noundef %55, i64 noundef %57, ptr noundef nonnull getelementptr inbounds nuw (i8, ptr @fooprot, i64 1), i64 noundef 3) #24
  %.not13 = icmp eq i32 %58, 0
  br i1 %.not13, label %.thread, label %63

59:                                               ; preds = %51
  %60 = load i32, ptr %8, align 4, !tbaa !14
  %61 = call i32 @test_uint_eq(ptr noundef nonnull @.str.14, i32 noundef 12545, ptr noundef nonnull @.str.1319, ptr noundef nonnull @.str.218, i32 noundef %60, i32 noundef 0) #24
  %.not12 = icmp eq i32 %61, 0
  br i1 %.not12, label %.thread, label %63

62:                                               ; preds = %51
  call void (ptr, i32, ptr, ...) @test_error(ptr noundef nonnull @.str.14, i32 noundef 12549, ptr noundef nonnull @.str.1321) #24
  br label %.thread

.thread:                                          ; preds = %62, %44, %54, %59
  call void @llvm.lifetime.end.p0(i64 4, ptr nonnull %8) #24
  call void @llvm.lifetime.end.p0(i64 8, ptr nonnull %7) #24
  br label %65

63:                                               ; preds = %54, %59
  call void @llvm.lifetime.end.p0(i64 4, ptr nonnull %8) #24
  call void @llvm.lifetime.end.p0(i64 8, ptr nonnull %7) #24
  br label %64

64:                                               ; preds = %63, %37
  br label %65

65:                                               ; preds = %.thread, %37, %26, %18, %1, %64
  %.07 = phi i32 [ 1, %64 ], [ 0, %37 ], [ 0, %26 ], [ 0, %18 ], [ 0, %1 ], [ 0, %.thread ]
  %66 = load ptr, ptr %5, align 8, !tbaa !21
  call void @SSL_free(ptr noundef %66) #24
  %67 = load ptr, ptr %6, align 8, !tbaa !21
  call void @SSL_free(ptr noundef %67) #24
  %68 = load ptr, ptr %3, align 8, !tbaa !19
  call void @SSL_CTX_free(ptr noundef %68) #24
  %69 = load ptr, ptr %4, align 8, !tbaa !19
  call void @SSL_CTX_free(ptr noundef %69) #24
  call void @llvm.lifetime.end.p0(i64 8, ptr nonnull %6) #24
  call void @llvm.lifetime.end.p0(i64 8, ptr nonnull %5) #24
  call void @llvm.lifetime.end.p0(i64 8, ptr nonnull %4) #24
  call void @llvm.lifetime.end.p0(i64 8, ptr nonnull %3) #24
  ret i32 %.07
}